; Function Attrs: mustprogress nofree norecurse nosync nounwind willreturn memory(none) uwtable
define dso_local zeroext range(i8 0, 2) i8 @lzma_filter_encoder_is_supported(i64 noundef %0) local_unnamed_addr #0 {
  br label %2

2:                                                ; preds = %2, %1
  %.07.i = phi i64 [ 0, %1 ], [ %6, %2 ]
  %3 = getelementptr inbounds nuw [9 x %struct.lzma_filter_encoder], ptr @encoders, i64 0, i64 %.07.i
  %4 = load i64, ptr %3, align 8
  %5 = icmp eq i64 %4, %0
  %6 = add nuw nsw i64 %.07.i, 1
  %exitcond.not.i = icmp eq i64 %6, 9
  %or.cond = select i1 %5, i1 true, i1 %exitcond.not.i
  br i1 %or.cond, label %encoder_find.exit, label %2, !llvm.loop !5

encoder_find.exit:                                ; preds = %2
  %7 = zext i1 %5 to i8
  ret i8 %7
}